; Function Attrs: nounwind sspstrong uwtable
define internal i64 @ossl_x509req_get_signature_algorithm(i64 noundef %0) #0 {
  %2 = alloca ptr, align 8
  %3 = alloca ptr, align 8
  call void @llvm.lifetime.start.p0(i64 8, ptr nonnull %2) #5
  call void @llvm.lifetime.start.p0(i64 8, ptr nonnull %3) #5
  %4 = tail call ptr @rb_check_typeddata(i64 noundef %0, ptr noundef nonnull @ossl_x509req_type) #5
  %.not = icmp eq ptr %4, null
  br i1 %.not, label %5, label %7

5:                                                ; preds = %1
  %6 = load i64, ptr @rb_eRuntimeError, align 8, !tbaa !6
  tail call void (i64, ptr, ...) @ossl_raise(i64 noundef %6, ptr noundef nonnull @.str) #6
  unreachable

7:                                                ; preds = %1
  %8 = tail call ptr @BIO_s_mem() #5
  %9 = tail call ptr @BIO_new(ptr noundef %8) #5
  %.not6 = icmp eq ptr %9, null
  br i1 %.not6, label %10, label %12

10:                                               ; preds = %7
  %11 = load i64, ptr @eX509ReqError, align 8, !tbaa !6
  tail call void (i64, ptr, ...) @ossl_raise(i64 noundef %11, ptr noundef null) #6
  unreachable

12:                                               ; preds = %7
  call void @X509_REQ_get0_signature(ptr noundef nonnull %4, ptr noundef null, ptr noundef nonnull %2) #5
  %13 = load ptr, ptr %2, align 8, !tbaa !30
  call void @X509_ALGOR_get0(ptr noundef nonnull %3, ptr noundef null, ptr noundef null, ptr noundef %13) #5
  %14 = load ptr, ptr %3, align 8, !tbaa !32
  %15 = call i32 @i2a_ASN1_OBJECT(ptr noundef nonnull %9, ptr noundef %14) #5
  %.not7 = icmp eq i32 %15, 0
  br i1 %.not7, label %16, label %19

16:                                               ; preds = %12
  %17 = call i32 @BIO_free(ptr noundef nonnull %9) #5
  %18 = load i64, ptr @eX509ReqError, align 8, !tbaa !6
  call void (i64, ptr, ...) @ossl_raise(i64 noundef %18, ptr noundef null) #6
  unreachable

19:                                               ; preds = %12
  %20 = call i64 @ossl_membio2str(ptr noundef nonnull %9) #5
  call void @llvm.lifetime.end.p0(i64 8, ptr nonnull %3) #5
  call void @llvm.lifetime.end.p0(i64 8, ptr nonnull %2) #5
  ret i64 %20
}